; Function Attrs: nounwind uwtable
define i32 @Abc_NodeResubMffc_rec(ptr noundef readonly captures(none) %0) local_unnamed_addr #0 {
  %.val2.i10 = load ptr, ptr %0, align 8
  %2 = getelementptr i8, ptr %0, i64 16
  %.val3.i11 = load i32, ptr %2, align 8
  %3 = getelementptr inbounds nuw i8, ptr %.val2.i10, i64 224
  %4 = add nsw i32 %.val3.i11, 1
  tail call fastcc void @Vec_IntFillExtra(ptr noundef nonnull %3, i32 noundef %4)
  %5 = getelementptr i8, ptr %.val2.i10, i64 232
  %.val.i.i.i12 = load ptr, ptr %5, align 8
  %6 = sext i32 %.val3.i11 to i64
  %7 = getelementptr inbounds i32, ptr %.val.i.i.i12, i64 %6
  %8 = load i32, ptr %7, align 4
  %.val.i13 = load ptr, ptr %0, align 8
  %9 = getelementptr inbounds nuw i8, ptr %.val.i13, i64 216
  %10 = load i32, ptr %9, align 8
  %.not14 = icmp eq i32 %8, %10
  br i1 %.not14, label %tailrecurse._crit_edge, label %tailrecurse

tailrecurse:                                      ; preds = %1, %tailrecurse
  %11 = phi i32 [ %41, %tailrecurse ], [ %10, %1 ]
  %.val.i17 = phi ptr [ %.val.i, %tailrecurse ], [ %.val.i13, %1 ]
  %12 = phi ptr [ %33, %tailrecurse ], [ %2, %1 ]
  %.tr16 = phi ptr [ %30, %tailrecurse ], [ %0, %1 ]
  %accumulator.tr15 = phi i32 [ %32, %tailrecurse ], [ 0, %1 ]
  %.val8 = load i32, ptr %12, align 8
  %13 = getelementptr inbounds nuw i8, ptr %.val.i17, i64 224
  %14 = add nsw i32 %.val8, 1
  tail call fastcc void @Vec_IntFillExtra(ptr noundef nonnull %13, i32 noundef %14)
  %15 = getelementptr i8, ptr %.val.i17, i64 232
  %.val.i.i.i9 = load ptr, ptr %15, align 8
  %16 = sext i32 %.val8 to i64
  %17 = getelementptr inbounds i32, ptr %.val.i.i.i9, i64 %16
  store i32 %11, ptr %17, align 4
  %.val = load ptr, ptr %.tr16, align 8
  %18 = getelementptr i8, ptr %.tr16, i64 32
  %.val4 = load ptr, ptr %18, align 8
  %19 = getelementptr i8, ptr %.val, i64 32
  %.val.val = load ptr, ptr %19, align 8
  %.val4.val = load i32, ptr %.val4, align 4
  %20 = getelementptr i8, ptr %.val.val, i64 8
  %.val.val.val = load ptr, ptr %20, align 8
  %21 = sext i32 %.val4.val to i64
  %22 = getelementptr inbounds ptr, ptr %.val.val.val, i64 %21
  %23 = load ptr, ptr %22, align 8
  %24 = tail call i32 @Abc_NodeResubMffc_rec(ptr noundef %23)
  %.val5 = load ptr, ptr %.tr16, align 8
  %.val6 = load ptr, ptr %18, align 8
  %25 = getelementptr i8, ptr %.val5, i64 32
  %.val5.val = load ptr, ptr %25, align 8
  %26 = getelementptr i8, ptr %.val6, i64 4
  %.val6.val = load i32, ptr %26, align 4
  %27 = getelementptr i8, ptr %.val5.val, i64 8
  %.val5.val.val = load ptr, ptr %27, align 8
  %28 = sext i32 %.val6.val to i64
  %29 = getelementptr inbounds ptr, ptr %.val5.val.val, i64 %28
  %30 = load ptr, ptr %29, align 8
  %31 = add i32 %accumulator.tr15, 1
  %32 = add i32 %31, %24
  %.val2.i = load ptr, ptr %30, align 8
  %33 = getelementptr i8, ptr %30, i64 16
  %.val3.i = load i32, ptr %33, align 8
  %34 = getelementptr inbounds nuw i8, ptr %.val2.i, i64 224
  %35 = add nsw i32 %.val3.i, 1
  tail call fastcc void @Vec_IntFillExtra(ptr noundef nonnull %34, i32 noundef %35)
  %36 = getelementptr i8, ptr %.val2.i, i64 232
  %.val.i.i.i = load ptr, ptr %36, align 8
  %37 = sext i32 %.val3.i to i64
  %38 = getelementptr inbounds i32, ptr %.val.i.i.i, i64 %37
  %39 = load i32, ptr %38, align 4
  %.val.i = load ptr, ptr %30, align 8
  %40 = getelementptr inbounds nuw i8, ptr %.val.i, i64 216
  %41 = load i32, ptr %40, align 8
  %.not = icmp eq i32 %39, %41
  br i1 %.not, label %tailrecurse._crit_edge, label %tailrecurse

tailrecurse._crit_edge:                           ; preds = %tailrecurse, %1
  %accumulator.tr.lcssa = phi i32 [ 0, %1 ], [ %32, %tailrecurse ]
  ret i32 %accumulator.tr.lcssa
}